target datalayout = "e-m:e-p270:32:32-p271:32:32-p272:64:64-i64:64-i128:128-f80:128-n8:16:32:64-S128"
target triple = "x86_64-pc-linux-gnu"

%struct.Curl_cftype = type { ptr, i32, i32, ptr, ptr, ptr, ptr, ptr, ptr, ptr, ptr, ptr, ptr, ptr, ptr, ptr }
%struct.Curl_sockaddr_ex = type { i32, i32, i32, i32, %union.anon }
%union.anon = type { %struct.Curl_sockaddr_storage }
%struct.Curl_sockaddr_storage = type { %union.anon.0 }
%union.anon.0 = type { %struct.sockaddr_storage }
%struct.sockaddr_storage = type { i16, [118 x i8], i64 }
%struct.Curl_easy = type { i32, i64, i64, ptr, %struct.Curl_llist_node, %struct.Curl_llist_node, i32, i32, %struct.Curl_message, %struct.easy_pollset, %struct.Names, ptr, ptr, ptr, ptr, %struct.SingleRequest, %struct.UserDefined, ptr, ptr, ptr, %struct.Progress, %struct.UrlState, ptr, %struct.PureInfo, %struct.curl_tlssessioninfo }
%struct.Curl_llist_node = type { ptr, ptr, ptr, ptr }
%struct.Curl_message = type { %struct.Curl_llist_node, %struct.CURLMsg }
%struct.CURLMsg = type { i32, ptr, %union.anon.3 }
%union.anon.3 = type { ptr }
%struct.easy_pollset = type { [5 x i32], i32, [5 x i8] }
%struct.Names = type { ptr, i32 }
%struct.SingleRequest = type <{ i64, i64, i64, i64, %struct.curltime, i32, i32, i32, i32, i64, i32, i32, i8, i8, [2 x i8], i32, ptr, ptr, %struct.bufq, i64, i64, ptr, ptr, %union.anon.4, ptr, i8, i32, [3 x i8] }>
%struct.curltime = type { i64, i32 }
%struct.bufq = type { ptr, ptr, ptr, ptr, i64, i64, i64, i32 }
%union.anon.4 = type { ptr }
%struct.UserDefined = type <{ ptr, ptr, ptr, ptr, ptr, ptr, i64, i64, i64, ptr, ptr, i64, ptr, ptr, ptr, ptr, ptr, ptr, ptr, ptr, ptr, ptr, ptr, ptr, ptr, ptr, ptr, ptr, ptr, ptr, ptr, ptr, ptr, ptr, ptr, i64, i64, i64, i64, i64, i64, i64, i64, i64, ptr, ptr, %struct.curl_mimepart, ptr, ptr, ptr, i64, %struct.ssl_config_data, %struct.ssl_config_data, ptr, i16, i8, i8, %struct.ssl_general_config, i32, i32, i32, [4 x i8], ptr, ptr, i64, i32, i8, i8, i8, i8, ptr, ptr, ptr, i32, [4 x i8], [74 x ptr], [8 x ptr], i32, i32, i32, [4 x i8], ptr, i32, [4 x i8], ptr, ptr, ptr, ptr, ptr, i32, i32, i32, i32, i32, i32, i32, i32, i64, ptr, ptr, i64, ptr, i64, ptr, ptr, ptr, ptr, i32, i16, i16, i16, i8, i8, i8, i8, i8, i8, i8, i8, i64, [6 x i8] }>
%struct.curl_mimepart = type { ptr, ptr, i32, i32, ptr, ptr, ptr, ptr, ptr, ptr, ptr, ptr, ptr, ptr, ptr, i64, %struct.mime_state, ptr, %struct.mime_encoder_state, i64 }
%struct.mime_state = type { i32, ptr, i64 }
%struct.mime_encoder_state = type { i64, i64, i64, [256 x i8] }
%struct.ssl_config_data = type { %struct.ssl_primary_config, i64, ptr, ptr, ptr, ptr, ptr, ptr, ptr, i16 }
%struct.ssl_primary_config = type { ptr, ptr, ptr, ptr, ptr, ptr, ptr, ptr, ptr, ptr, ptr, ptr, ptr, ptr, i8, i32, i8, i8 }
%struct.ssl_general_config = type { i32 }
%struct.Progress = type { i64, %struct.pgrs_dir, %struct.pgrs_dir, i64, i64, i32, i32, i64, i64, i64, i64, i64, i64, i64, i64, i64, %struct.curltime, %struct.curltime, %struct.curltime, %struct.curltime, %struct.curltime, [6 x i64], [6 x %struct.curltime], i32, i8 }
%struct.pgrs_dir = type { i64, i64, i64, %struct.pgrs_measure }
%struct.pgrs_measure = type { %struct.curltime, i64 }
%struct.UrlState = type { %struct.curltime, i64, i64, %struct.dynbuf, ptr, i64, ptr, i32, i32, i32, ptr, i32, i64, i32, ptr, %struct.digestdata, %struct.digestdata, %struct.auth, %struct.auth, %struct.Curl_async, ptr, i8, %struct.curltime, %struct.Curl_tree, %struct.Curl_llist, [15 x %struct.time_node], ptr, ptr, i64, i64, i64, i64, [32 x i8], i64, ptr, ptr, ptr, %struct.urlpieces, ptr, ptr, ptr, ptr, ptr, i64, %struct.dynbuf, %struct.Curl_llist, [2 x %struct.curl_header], ptr, i32, ptr, ptr, %struct.store_netrc, %struct.dynamically_allocated_data, i8, i8, i8, i8, i32 }
%struct.digestdata = type { ptr, ptr, ptr, ptr, ptr, ptr, i32, i8, i8 }
%struct.auth = type { i64, i64, i64, i8 }
%struct.Curl_async = type { ptr, ptr, ptr, ptr, i32, i32, i8 }
%struct.Curl_tree = type { ptr, ptr, ptr, ptr, %struct.curltime, ptr }
%struct.time_node = type { %struct.Curl_llist_node, %struct.curltime, i32 }
%struct.urlpieces = type { ptr, ptr, ptr, ptr, ptr, ptr, ptr, ptr }
%struct.dynbuf = type { ptr, i64, i64, i64 }
%struct.Curl_llist = type { ptr, ptr, ptr, i64 }
%struct.curl_header = type { ptr, ptr, i64, i64, i32, ptr }
%struct.store_netrc = type { %struct.dynbuf, ptr, i8 }
%struct.dynamically_allocated_data = type { ptr, ptr, ptr, ptr, ptr, ptr, ptr, ptr, ptr, ptr, ptr, ptr, ptr, ptr }
%struct.PureInfo = type { i32, i32, i32, i64, i64, i64, i64, i64, i64, i64, ptr, ptr, i64, i32, %struct.ip_quadruple, i32, ptr, i32, %struct.curl_certinfo, i32, i8 }
%struct.ip_quadruple = type { [46 x i8], [46 x i8], i32, i32 }
%struct.curl_certinfo = type { i32, ptr }
%struct.curl_tlssessioninfo = type { i32, ptr }
%struct.Curl_cfilter = type { ptr, ptr, ptr, ptr, i32, i8 }
%struct.curl_trc_feat = type { ptr, i32 }
%struct.cf_socket_ctx = type { i32, %struct.Curl_sockaddr_ex, i32, %struct.ip_quadruple, %struct.curltime, %struct.curltime, %struct.curltime, i32, i8 }

@.str.36 = private unnamed_addr constant [17 x i8] c"Recv failure: %s\00", align 1
@.str.37 = private unnamed_addr constant [28 x i8] c"recv(len=%zu) -> %d, err=%d\00", align 1

; Function Attrs: nounwind uwtable
define internal i64 @cf_socket_recv(ptr noundef %0, ptr noundef %1, ptr noundef %2, i64 noundef %3, ptr noundef %4) #0 {
  %6 = alloca ptr, align 8
  %7 = alloca ptr, align 8
  %8 = alloca ptr, align 8
  %9 = alloca i64, align 8
  %10 = alloca ptr, align 8
  %11 = alloca ptr, align 8
  %12 = alloca i64, align 8
  %13 = alloca i32, align 4
  %14 = alloca [256 x i8], align 16
  %15 = alloca %struct.curltime, align 8
  store ptr %0, ptr %6, align 8, !tbaa !118
  store ptr %1, ptr %7, align 8, !tbaa !23
  store ptr %2, ptr %8, align 8, !tbaa !112
  store i64 %3, ptr %9, align 8, !tbaa !115
  store ptr %4, ptr %10, align 8, !tbaa !117
  call void @llvm.lifetime.start.p0(i64 8, ptr %11) #9
  %16 = load ptr, ptr %6, align 8, !tbaa !118
  %17 = getelementptr inbounds nuw %struct.Curl_cfilter, ptr %16, i32 0, i32 2
  %18 = load ptr, ptr %17, align 8, !tbaa !120
  store ptr %18, ptr %11, align 8, !tbaa !123
  call void @llvm.lifetime.start.p0(i64 8, ptr %12) #9
  %19 = load ptr, ptr %10, align 8, !tbaa !117
  store i32 0, ptr %19, align 4, !tbaa !10
  %20 = load ptr, ptr %10, align 8, !tbaa !117
  store i32 0, ptr %20, align 4, !tbaa !10
  %21 = load ptr, ptr %11, align 8, !tbaa !123
  %22 = getelementptr inbounds nuw %struct.cf_socket_ctx, ptr %21, i32 0, i32 2
  %23 = load i32, ptr %22, align 8, !tbaa !137
  %24 = load ptr, ptr %8, align 8, !tbaa !112
  %25 = load i64, ptr %9, align 8, !tbaa !115
  %26 = call i64 @recv(i32 noundef %23, ptr noundef %24, i64 noundef %25, i32 noundef 0)
  store i64 %26, ptr %12, align 8, !tbaa !115
  %27 = load i64, ptr %12, align 8, !tbaa !115
  %28 = icmp eq i64 -1, %27
  br i1 %28, label %29, label %53

29:                                               ; preds = %5
  call void @llvm.lifetime.start.p0(i64 4, ptr %13) #9
  %30 = call ptr @__errno_location() #11
  %31 = load i32, ptr %30, align 4, !tbaa !10
  store i32 %31, ptr %13, align 4, !tbaa !10
  %32 = load i32, ptr %13, align 4, !tbaa !10
  %33 = icmp eq i32 11, %32
  br i1 %33, label %40, label %34

34:                                               ; preds = %29
  %35 = load i32, ptr %13, align 4, !tbaa !10
  %36 = icmp eq i32 11, %35
  br i1 %36, label %40, label %37

37:                                               ; preds = %34
  %38 = load i32, ptr %13, align 4, !tbaa !10
  %39 = icmp eq i32 4, %38
  br i1 %39, label %40, label %42

40:                                               ; preds = %37, %34, %29
  %41 = load ptr, ptr %10, align 8, !tbaa !117
  store i32 81, ptr %41, align 4, !tbaa !10
  br label %52

42:                                               ; preds = %37
  call void @llvm.lifetime.start.p0(i64 256, ptr %14) #9
  %43 = load ptr, ptr %7, align 8, !tbaa !23
  %44 = load i32, ptr %13, align 4, !tbaa !10
  %45 = getelementptr inbounds [256 x i8], ptr %14, i64 0, i64 0
  %46 = call ptr @Curl_strerror(i32 noundef %44, ptr noundef %45, i64 noundef 256)
  call void (ptr, ptr, ...) @Curl_failf(ptr noundef %43, ptr noundef @.str.36, ptr noundef %46)
  %47 = load i32, ptr %13, align 4, !tbaa !10
  %48 = load ptr, ptr %7, align 8, !tbaa !23
  %49 = getelementptr inbounds nuw %struct.Curl_easy, ptr %48, i32 0, i32 21
  %50 = getelementptr inbounds nuw %struct.UrlState, ptr %49, i32 0, i32 11
  store i32 %47, ptr %50, align 8, !tbaa !143
  %51 = load ptr, ptr %10, align 8, !tbaa !117
  store i32 56, ptr %51, align 4, !tbaa !10
  call void @llvm.lifetime.end.p0(i64 256, ptr %14) #9
  br label %52

52:                                               ; preds = %42, %40
  call void @llvm.lifetime.end.p0(i64 4, ptr %13) #9
  br label %53

53:                                               ; preds = %52, %5
  br label %54

54:                                               ; preds = %53
  %55 = load ptr, ptr %7, align 8, !tbaa !23
  %56 = icmp ne ptr %55, null
  br i1 %56, label %57, label %98

57:                                               ; preds = %54
  %58 = load ptr, ptr %7, align 8, !tbaa !23
  %59 = getelementptr inbounds nuw %struct.Curl_easy, ptr %58, i32 0, i32 16
  %60 = getelementptr inbounds nuw %struct.UserDefined, ptr %59, i32 0, i32 119
  %61 = load i64, ptr %60, align 2
  %62 = lshr i64 %61, 31
  %63 = and i64 %62, 1
  %64 = trunc i64 %63 to i32
  %65 = icmp ne i32 %64, 0
  br i1 %65, label %66, label %98

66:                                               ; preds = %57
  %67 = load ptr, ptr %7, align 8, !tbaa !23
  %68 = getelementptr inbounds nuw %struct.Curl_easy, ptr %67, i32 0, i32 21
  %69 = getelementptr inbounds nuw %struct.UrlState, ptr %68, i32 0, i32 50
  %70 = load ptr, ptr %69, align 8, !tbaa !125
  %71 = icmp ne ptr %70, null
  br i1 %71, label %72, label %80

72:                                               ; preds = %66
  %73 = load ptr, ptr %7, align 8, !tbaa !23
  %74 = getelementptr inbounds nuw %struct.Curl_easy, ptr %73, i32 0, i32 21
  %75 = getelementptr inbounds nuw %struct.UrlState, ptr %74, i32 0, i32 50
  %76 = load ptr, ptr %75, align 8, !tbaa !125
  %77 = getelementptr inbounds nuw %struct.curl_trc_feat, ptr %76, i32 0, i32 1
  %78 = load i32, ptr %77, align 8, !tbaa !126
  %79 = icmp sge i32 %78, 1
  br i1 %79, label %80, label %98

80:                                               ; preds = %72, %66
  %81 = load ptr, ptr %6, align 8, !tbaa !118
  %82 = icmp ne ptr %81, null
  br i1 %82, label %83, label %98

83:                                               ; preds = %80
  %84 = load ptr, ptr %6, align 8, !tbaa !118
  %85 = getelementptr inbounds nuw %struct.Curl_cfilter, ptr %84, i32 0, i32 0
  %86 = load ptr, ptr %85, align 8, !tbaa !128
  %87 = getelementptr inbounds nuw %struct.Curl_cftype, ptr %86, i32 0, i32 2
  %88 = load i32, ptr %87, align 4, !tbaa !129
  %89 = icmp sge i32 %88, 1
  br i1 %89, label %90, label %98

90:                                               ; preds = %83
  %91 = load ptr, ptr %7, align 8, !tbaa !23
  %92 = load ptr, ptr %6, align 8, !tbaa !118
  %93 = load i64, ptr %9, align 8, !tbaa !115
  %94 = load i64, ptr %12, align 8, !tbaa !115
  %95 = trunc i64 %94 to i32
  %96 = load ptr, ptr %10, align 8, !tbaa !117
  %97 = load i32, ptr %96, align 4, !tbaa !10
  call void (ptr, ptr, ptr, ...) @Curl_trc_cf_infof(ptr noundef %91, ptr noundef %92, ptr noundef @.str.37, i64 noundef %93, i32 noundef %95, i32 noundef %97)
  br label %98

98:                                               ; preds = %90, %83, %80, %72, %57, %54
  br label %99

99:                                               ; preds = %98
  br label %100

100:                                              ; preds = %99
  %101 = load i64, ptr %12, align 8, !tbaa !115
  %102 = icmp sgt i64 %101, 0
  br i1 %102, label %103, label %123

103:                                              ; preds = %100
  %104 = load ptr, ptr %11, align 8, !tbaa !123
  %105 = getelementptr inbounds nuw %struct.cf_socket_ctx, ptr %104, i32 0, i32 8
  %106 = load i8, ptr %105, align 4
  %107 = and i8 %106, 1
  %108 = zext i8 %107 to i32
  %109 = icmp ne i32 %108, 0
  br i1 %109, label %123, label %110

110:                                              ; preds = %103
  %111 = load ptr, ptr %11, align 8, !tbaa !123
  %112 = getelementptr inbounds nuw %struct.cf_socket_ctx, ptr %111, i32 0, i32 6
  call void @llvm.lifetime.start.p0(i64 16, ptr %15) #9
  %113 = call { i64, i32 } @Curl_now()
  %114 = getelementptr inbounds nuw { i64, i32 }, ptr %15, i32 0, i32 0
  %115 = extractvalue { i64, i32 } %113, 0
  store i64 %115, ptr %114, align 8
  %116 = getelementptr inbounds nuw { i64, i32 }, ptr %15, i32 0, i32 1
  %117 = extractvalue { i64, i32 } %113, 1
  store i32 %117, ptr %116, align 8
  call void @llvm.memcpy.p0.p0.i64(ptr align 8 %112, ptr align 8 %15, i64 16, i1 false), !tbaa.struct !141
  call void @llvm.lifetime.end.p0(i64 16, ptr %15) #9
  %118 = load ptr, ptr %11, align 8, !tbaa !123
  %119 = getelementptr inbounds nuw %struct.cf_socket_ctx, ptr %118, i32 0, i32 8
  %120 = load i8, ptr %119, align 4
  %121 = and i8 %120, -2
  %122 = or i8 %121, 1
  store i8 %122, ptr %119, align 4
  br label %123

123:                                              ; preds = %110, %103, %100
  %124 = load i64, ptr %12, align 8, !tbaa !115
  call void @llvm.lifetime.end.p0(i64 8, ptr %12) #9
  call void @llvm.lifetime.end.p0(i64 8, ptr %11) #9
  ret i64 %124
}