; Function Attrs: nounwind uwtable
define internal i64 @cf_socket_recv(ptr noundef %0, ptr noundef %1, ptr noundef %2, i64 noundef %3, ptr noundef captures(none) initializes((0, 4)) %4) #2 {
  %6 = alloca [256 x i8], align 16
  %7 = getelementptr inbounds nuw i8, ptr %0, i64 16
  %8 = load ptr, ptr %7, align 8, !tbaa !104
  store i32 0, ptr %4, align 4, !tbaa !87
  %9 = getelementptr inbounds nuw i8, ptr %8, i64 152
  %10 = load i32, ptr %9, align 8, !tbaa !116
  %11 = tail call i64 @recv(i32 noundef %10, ptr noundef %2, i64 noundef %3, i32 noundef 0) #13
  %12 = icmp eq i64 %11, -1
  br i1 %12, label %13, label %19

13:                                               ; preds = %5
  %14 = tail call ptr @__errno_location() #15
  %15 = load i32, ptr %14, align 4, !tbaa !87
  switch i32 %15, label %.thread [
    i32 11, label %16
    i32 4, label %16
  ]

16:                                               ; preds = %13, %13
  store i32 81, ptr %4, align 4, !tbaa !87
  br label %19

.thread:                                          ; preds = %13
  call void @llvm.lifetime.start.p0(i64 256, ptr nonnull %6) #13
  %17 = call ptr @Curl_strerror(i32 noundef %15, ptr noundef nonnull %6, i64 noundef 256) #13
  call void (ptr, ptr, ...) @Curl_failf(ptr noundef %1, ptr noundef nonnull @.str.36, ptr noundef %17) #13
  %18 = getelementptr inbounds nuw i8, ptr %1, i64 3240
  store i32 %15, ptr %18, align 8, !tbaa !122
  store i32 56, ptr %4, align 4, !tbaa !87
  call void @llvm.lifetime.end.p0(i64 256, ptr nonnull %6) #13
  br label %20

19:                                               ; preds = %16, %5
  %.not = icmp eq ptr %1, null
  br i1 %.not, label %39, label %20

20:                                               ; preds = %.thread, %19
  %21 = getelementptr inbounds nuw i8, ptr %1, i64 2658
  %22 = load i64, ptr %21, align 2
  %23 = and i64 %22, 2147483648
  %.not38 = icmp eq i64 %23, 0
  br i1 %.not38, label %39, label %24

24:                                               ; preds = %20
  %25 = getelementptr inbounds nuw i8, ptr %1, i64 4864
  %26 = load ptr, ptr %25, align 8, !tbaa !108
  %.not39 = icmp eq ptr %26, null
  br i1 %.not39, label %31, label %27

27:                                               ; preds = %24
  %28 = getelementptr inbounds nuw i8, ptr %26, i64 8
  %29 = load i32, ptr %28, align 8, !tbaa !109
  %30 = icmp sgt i32 %29, 0
  br i1 %30, label %31, label %39

31:                                               ; preds = %24, %27
  %32 = load ptr, ptr %0, align 8, !tbaa !111
  %33 = getelementptr inbounds nuw i8, ptr %32, i64 12
  %34 = load i32, ptr %33, align 4, !tbaa !112
  %35 = icmp sgt i32 %34, 0
  br i1 %35, label %36, label %39

36:                                               ; preds = %31
  %37 = trunc i64 %11 to i32
  %38 = load i32, ptr %4, align 4, !tbaa !87
  call void (ptr, ptr, ptr, ...) @Curl_trc_cf_infof(ptr noundef nonnull %1, ptr noundef nonnull %0, ptr noundef nonnull @.str.37, i64 noundef %3, i32 noundef %37, i32 noundef %38) #13
  br label %39

39:                                               ; preds = %36, %31, %27, %20, %19
  %40 = icmp sgt i64 %11, 0
  br i1 %40, label %41, label %52

41:                                               ; preds = %39
  %42 = getelementptr inbounds nuw i8, ptr %8, i64 308
  %43 = load i8, ptr %42, align 4
  %44 = and i8 %43, 1
  %.not40 = icmp eq i8 %44, 0
  br i1 %.not40, label %45, label %52

45:                                               ; preds = %41
  %46 = getelementptr inbounds nuw i8, ptr %8, i64 288
  %47 = call { i64, i32 } @Curl_now() #13
  %48 = extractvalue { i64, i32 } %47, 0
  %49 = extractvalue { i64, i32 } %47, 1
  store i64 %48, ptr %46, align 8, !tbaa !120
  %.sroa.4.0..sroa_idx = getelementptr inbounds nuw i8, ptr %8, i64 296
  store i32 %49, ptr %.sroa.4.0..sroa_idx, align 8, !tbaa !87
  %50 = load i8, ptr %42, align 4
  %51 = or i8 %50, 1
  store i8 %51, ptr %42, align 4
  br label %52

52:                                               ; preds = %45, %41, %39
  ret i64 %11
}